0000000000166e04 T _ZN5shell10InputState11HandleInputENSt6__ndk110shared_ptrINS_12InputContextEEE
0000000000166ac8 T _ZN5shell10InputState12ClearToReadyENSt6__ndk110shared_ptrINS_12InputContextEEE
0000000000166c20 T _ZN5shell10InputState12GetFocusCandENSt6__ndk110shared_ptrINS_12InputContextEEE
0000000000168390 T _ZN5shell10InputState12LoopDispatchENSt6__ndk110shared_ptrINS_12InputContextEEE
0000000000166a38 T _ZN5shell10InputState13ClearCompCandENSt6__ndk110shared_ptrINS_12InputContextEEE
0000000000166008 T _ZN5shell10InputState14HandleShortCutENSt6__ndk110shared_ptrINS_12InputContextEEE
0000000000166a80 T _ZN5shell10InputState16ClearCompAndDataENSt6__ndk110shared_ptrINS_12InputContextEEE
00000000001665c0 T _ZN5shell10InputState16HandleChEnSwitchENSt6__ndk110shared_ptrINS_12InputContextEEE
0000000000166968 T _ZN5shell10InputState16InsertAndConvertEhNSt6__ndk110shared_ptrINS_12InputContextEEE
00000000006e1768 B _ZN5shell10InputState16key_map_entries_E
0000000000166d0c T _ZN5shell10InputState17UpdateKeycodeMaskERi
0000000000166594 T _ZN5shell10InputState21IsChineseConvertStateENSt6__ndk110shared_ptrINS_12InputContextEEE
0000000000166c98 T _ZN5shell10InputState21IsCommitDigitOrSymbolENSt6__ndk110shared_ptrINS_12InputContextEEE
0000000000166958 T _ZN5shell10InputState7IsDigitEi
00000000006c68f8 D _ZN5shell10InputState8key_map_E
00000000001668f8 T _ZN5shell10InputState8MatchKeyEPKii
0000000000168570 W _ZN5shell10InputStateD0Ev
000000000015b7a0 W _ZN5shell10InputStateD2Ev
0000000000168568 T _ZN5shell11GetKeyStateEi
0000000000171338 T _ZN5shell11Pinyin9Mode10LoadConfigEv
0000000000170908 T _ZN5shell11Pinyin9Mode11HandleInputEiRKNSt6__ndk14pairIssEEb
000000000017121c T _ZN5shell11Pinyin9Mode14WillHalfSelectEj
00000000001719cc T _ZN5shell11Pinyin9Mode18UpdateGlobalStatusEv
0000000000170ac0 T _ZN5shell11Pinyin9Mode5ClearEv
0000000000170728 T _ZN5shell11Pinyin9Mode6AttachEv
0000000000170900 T _ZN5shell11Pinyin9Mode6DetachEv
0000000000170bd4 T _ZN5shell11Pinyin9Mode6PageUpEv
0000000000170ddc T _ZN5shell11Pinyin9Mode6SelectEj
0000000000170cd8 T _ZN5shell11Pinyin9Mode8PageDownEv
0000000000170684 T _ZN5shell11Pinyin9ModeC1Ev
0000000000170684 T _ZN5shell11Pinyin9ModeC2Ev
0000000000171a88 W _ZN5shell11Pinyin9ModeD0Ev
0000000000171a20 W _ZN5shell11Pinyin9ModeD2Ev
000000000013e814 T _ZN5shell12ConvertUtils10ClearCacheEv
000000000013d1b0 T _ZN5shell12ConvertUtils10SelectCandENSt6__ndk110shared_ptrINS_12InputContextEEEj
000000000013d190 T _ZN5shell12ConvertUtils11CanPageDownEv
000000000013e484 T _ZN5shell12ConvertUtils11EnterCommitENSt6__ndk110shared_ptrINS_12InputContextEEE
000000000013ded8 T _ZN5shell12ConvertUtils11SaveUsrDictENSt6__ndk110shared_ptrINS_12InputContextEEEb
000000000013e29c T _ZN5shell12ConvertUtils12ClearContextEv
000000000013b990 T _ZN5shell12ConvertUtils12UpdateResultENSt6__ndk110shared_ptrINS_12InputContextEEE
000000000013a0e4 T _ZN5shell12ConvertUtils12UpdateResultENSt6__ndk110shared_ptrINS_12InputContextEEEPKN11oime_engine15ResultInterfaceE
000000000013999c T _ZN5shell12ConvertUtils13UnicodeToUtf8EDs
000000000013b5c0 T _ZN5shell12ConvertUtils14UpdateCompInfoERKNSt6__ndk110shared_ptrINS_12InputContextEEEPKN11oime_engine15ResultInterfaceE
0000000000139b98 T _ZN5shell12ConvertUtils15ConvertPunctureEibb
000000000013fcf4 T _ZN5shell12ConvertUtils15GetEnginContextEv
000000000013e584 T _ZN5shell12ConvertUtils16FallbackPageDownENSt6__ndk110shared_ptrINS_12InputContextEEE
000000000013fbbc T _ZN5shell12ConvertUtils16GetCandCheatInfoEi
000000000013e390 T _ZN5shell12ConvertUtils16RollBackLearWordENSt6__ndk110shared_ptrINS_12InputContextEEE
000000000013b190 T _ZN5shell12ConvertUtils17GetReportCandInfoEii
0000000000139e54 T _ZN5shell12ConvertUtils18ConvertToFullShapeEc
0000000000139e80 T _ZN5shell12ConvertUtils18ConvertToFullShapeENSt6__ndk112basic_stringIcNS1_11char_traitsIcEENS1_9allocatorIcEEEEb
000000000013e834 T _ZN5shell12ConvertUtils18ParseCloudResponseERKNSt6__ndk110shared_ptrINS_12InputContextEEERKNS1_12basic_stringIcNS1_11char_traitsIcEENS1_9allocatorIcEEEERiN11oime_engine24CandRefreshTimePointTypeERNSG_6KErrnoE
000000000013fe14 T _ZN5shell12ConvertUtils20ConvertDataMapToJsonERKNSt6__ndk113unordered_mapINS1_12basic_stringIcNS1_11char_traitsIcEENS1_9allocatorIcEEEEN11oime_engine3AnyENS1_4hashIS8_EENS1_8equal_toIS8_EENS6_INS1_4pairIKS8_SA_EEEEEE
000000000013bbb0 T _ZN5shell12ConvertUtils20UpdatePinyin9LLMCompENSt6__ndk110shared_ptrINS_12InputContextEEE
000000000013c958 T _ZN5shell12ConvertUtils21UpdateAdditionalCandsERKNSt6__ndk110shared_ptrINS_12InputContextEEEPKN11oime_engine15ResultInterfaceE
000000000013dcf8 T _ZN5shell12ConvertUtils23CommitCloudPositionCandEv
000000000013ba90 T _ZN5shell12ConvertUtils23UpdateHandwritingResultENSt6__ndk110shared_ptrINS_12InputContextEEEPKN11oime_engine15ResultInterfaceE
000000000013eaa0 T _ZN5shell12ConvertUtils24ParseCloudAndLLMResponseERKNSt6__ndk110shared_ptrINS_12InputContextEEERKNS1_12basic_stringIcNS1_11char_traitsIcEENS1_9allocatorIcEEEESE_SE_N11oime_engine24CandRefreshTimePointTypeERNSF_6KErrnoERSC_b
000000000013f444 T _ZN5shell12ConvertUtils25SetCommitCandInfoOverrideERKN11oime_engine14CommitCandInfoE
000000000013f030 T _ZN5shell12ConvertUtils26ParseCloudWordAssoResponseERKNSt6__ndk110shared_ptrINS_12InputContextEEERKNS1_12basic_stringIcNS1_11char_traitsIcEENS1_9allocatorIcEEEESE_RN11oime_engine6KErrnoE
000000000013f564 T _ZN5shell12ConvertUtils27ResetCommitCandInfoOverrideEv
000000000013f18c T _ZN5shell12ConvertUtils38ParseCloudWordAssociationResponseNoLocERKNSt6__ndk110shared_ptrINS_12InputContextEEERKNS1_12basic_stringIcNS1_11char_traitsIcEENS1_9allocatorIcEEEESE_RN11oime_engine6KErrnoE
000000000013f2e8 T _ZN5shell12ConvertUtils41ParseCloudWordAssociationPrefetchResponseERKNSt6__ndk110shared_ptrINS_12InputContextEEERKNS1_12basic_stringIcNS1_11char_traitsIcEENS1_9allocatorIcEEEESE_RN11oime_engine6KErrnoE
000000000013ce18 T _ZN5shell12ConvertUtils6PageUpENSt6__ndk110shared_ptrINS_12InputContextEEE
000000000013bf30 T _ZN5shell12ConvertUtils7ConvertENSt6__ndk110shared_ptrINS_12InputContextEEENS1_8functionIFvRKNS1_12basic_stringIcNS1_11char_traitsIcEENS1_9allocatorIcEEEEEEE
000000000013e7e8 T _ZN5shell12ConvertUtils7PopHalfEv
0000000000139698 T _ZN5shell12ConvertUtils8InstanceEv
000000000013cfe4 T _ZN5shell12ConvertUtils8PageDownENSt6__ndk110shared_ptrINS_12InputContextEEE
000000000013f9f0 T _ZN5shell12ConvertUtils9AssociateENSt6__ndk110shared_ptrINS_12InputContextEEERKNS1_12basic_stringIcNS1_11char_traitsIcEENS1_9allocatorIcEEEEi
000000000013cfc4 T _ZN5shell12ConvertUtils9CanPageUpEv
000000000013ddf8 T _ZN5shell12ConvertUtils9LearnWordENSt6__ndk110shared_ptrINS_12InputContextEEEb
0000000000139740 T _ZN5shell12ConvertUtilsC1Ev
0000000000139740 T _ZN5shell12ConvertUtilsC2Ev
0000000000139784 T _ZN5shell12ConvertUtilsD1Ev
0000000000139784 T _ZN5shell12ConvertUtilsD2Ev
00000000001658cc W _ZN5shell12InputContextD2Ev
00000000006de5e8 D _ZN5shell12kCheatStringE
000000000016b604 T _ZN5shell12Pinyin26Mode10LoadConfigEv
000000000016af3c T _ZN5shell12Pinyin26Mode11HandleInputEiRKNSt6__ndk14pairIssEEb
000000000016b4e8 T _ZN5shell12Pinyin26Mode14WillHalfSelectEj
   224: 000000000016f944    12 FUNC    GLOBAL DEFAULT   10 _ZNK5shell17Pinyin26IdleState9GetkeyMapEv
   227: 000000000016ce78   252 FUNC    GLOBAL DEFAULT   10 _ZN5shell20Pinyin26ConvertState14HandleShortCutENSt6__ndk110shared_ptrINS_12InputContextEEE
   230: 00000000006c6ec0   888 OBJECT  GLOBAL DEFAULT   18 _ZTVN5shell9ShellImplE
   231: 0000000000166e04  5516 FUNC    GLOBAL DEFAULT   10 _ZN5shell10InputState11HandleInputENSt6__ndk110shared_ptrINS_12InputContextEEE
   232: 000000000016a174    12 FUNC    GLOBAL DEFAULT   10 _ZNK5shell14KeyboardLayout9DeleteKeyEv
   235: 000000000015d904    56 FUNC    GLOBAL DEFAULT   10 _ZN5shell7ImeData20UpdatePinyin9LLMCompERKNSt6__ndk112basic_stringIcNS1_11char_traitsIcEENS1_9allocatorIcEEEE
   237: 0000000000177668     8 FUNC    GLOBAL DEFAULT   10 _ZN5shell9ShellImpl8Sim2TradERKNSt6__ndk112basic_stringIcNS1_11char_traitsIcEENS1_9allocatorIcEEEE
   239: 00000000006c63d8    56 OBJECT  WEAK   DEFAULT   18 _ZTVNSt6__ndk120__shared_ptr_emplaceIN5shell20Pinyin26ConvertStateENS_9allocatorIS2_EEEE
   242: 000000000015ca50     4 FUNC    WEAK   DEFAULT   10 _ZNSt6__ndk120__shared_ptr_emplaceIN5shell19Pinyin9ConvertStateENS_9allocatorIS2_EEE21__on_zero_shared_weakEv
   243: 000000000015ca18     4 FUNC    WEAK   DEFAULT   10 _ZNSt6__ndk120__shared_ptr_emplaceIN5shell16Pinyin9IdleStateENS_9allocatorIS2_EEE21__on_zero_shared_weakEv
   246: 000000000017af70   616 FUNC    GLOBAL DEFAULT   10 _ZN5shell9ShellImpl21ContactDictBatchClearEv
   247: 0000000000139e80   612 FUNC    GLOBAL DEFAULT   10 _ZN5shell12ConvertUtils18ConvertToFullShapeENSt6__ndk112basic_stringIcNS1_11char_traitsIcEENS1_9allocatorIcEEEEb
   248: 000000000017a200   296 FUNC    GLOBAL DEFAULT   10 _ZN5shell9ShellImpl28ParseWordAssociationResponseERKNSt6__ndk112basic_stringIcNS1_11char_traitsIcEENS1_9allocatorIcEEEES9_
   250: 0000000000165d0c    68 FUNC    WEAK   DEFAULT   10 _ZNSt6__ndk120__shared_ptr_emplaceIN5shell14StatisticsDataENS_9allocatorIS2_EEE16__on_zero_sharedEv
   255: 000000000017301c   372 FUNC    GLOBAL DEFAULT   10 _ZN5shell19Pinyin9ConvertState17HandleEnterCommitENSt6__ndk110shared_ptrINS_12InputContextEEE
   256: 00000000001599cc  1568 FUNC    GLOBAL DEFAULT   10 _ZN5shell21English26ConvertState16HandlePushCommitENSt6__ndk110shared_ptrINS_12InputContextEEE
   259: 0000000000174a0c    16 FUNC    GLOBAL DEFAULT   10 _ZN5shell9ShellImpl7OpenLogEb
   261: 000000000015cb24    12 FUNC    WEAK   DEFAULT   10 _ZNSt6__ndk120__shared_ptr_emplaceIN5shell16WubiConvertStateENS_9allocatorIS2_EEE16__on_zero_sharedEv
   262: 000000000016f0d0   640 FUNC    GLOBAL DEFAULT   10 _ZN5shell20Pinyin26ConvertState12HandleDeleteENSt6__ndk110shared_ptrINS_12InputContextEEE
   264: 00000000001819b4   580 FUNC    GLOBAL DEFAULT   10 _ZN5shell5track15SetKeyboardSizeEii
   265: 000000000016a18c    12 FUNC    GLOBAL DEFAULT   10 _ZNK5shell14KeyboardLayout16EnPushCommitKeysEv
   266: 000000000017beb0   296 FUNC    GLOBAL DEFAULT   10 _ZN5shell9ShellImpl38ParseCloudPrefetchCtxRegulatorResponseERKNSt6__ndk112basic_stringIcNS1_11char_traitsIcEENS1_9allocatorIcEEEE
   267: 000000000013f030   348 FUNC    GLOBAL DEFAULT   10 _ZN5shell12ConvertUtils26ParseCloudWordAssoResponseERKNSt6__ndk110shared_ptrINS_12InputContextEEERKNS1_12basic_stringIcNS1_11char_traitsIcEENS1_9allocatorIcEEEESE_RN11oime_engine6KErrnoE
   268: 00000000001760f8   268 FUNC    GLOBAL DEFAULT   10 _ZN5shell9ShellImpl4BackEv
   270: 000000000016a0a8    12 FUNC    GLOBAL DEFAULT   10 _ZNK5shell14KeyboardLayout10NumberKeysEv
   271: 000000000015ca7c    12 FUNC    WEAK   DEFAULT   10 _ZNSt6__ndk120__shared_ptr_emplaceIN5shell18English26IdleStateENS_9allocatorIS2_EEE16__on_zero_sharedEv
   272: 0000000000170728   472 FUNC    GLOBAL DEFAULT   10 _ZN5shell11Pinyin9Mode6AttachEv
   273: 000000000015c488   396 FUNC    GLOBAL DEFAULT   10 _ZN5shell17InputStateFactory6CreateENS_13InputModeEnumENS_14InputStateEnumE
   274: 000000000016fca0  1068 FUNC    GLOBAL DEFAULT   10 _ZN5shell17Pinyin26IdleState18HandleMajorSymbolsENSt6__ndk110shared_ptrINS_12InputContextEEE
   276: 000000000015b7a0     4 FUNC    WEAK   DEFAULT   10 _ZN5shell10InputStateD2Ev
   277: 000000000016a09c    12 FUNC    GLOBAL DEFAULT   10 _ZNK5shell14KeyboardLayout12SemicolonKeyEv
   281: 000000000015d3a8   464 FUNC    GLOBAL DEFAULT   10 _ZNK5shell7ImeData14GetHalfSegmentERNSt6__ndk112basic_stringIcNS1_11char_traitsIcEENS1_9allocatorIcEEEES8_
   282: 000000000015cb34   696 FUNC    GLOBAL DEFAULT   10 _ZNK5shell7ImeData14GetDisplayTextERNSt6__ndk112basic_stringIcNS1_11char_traitsIcEENS1_9allocatorIcEEEES8_S8_
   284: 000000000016f558   704 FUNC    GLOBAL DEFAULT   10 _ZN5shell20Pinyin26ConvertState10SelectCandENSt6__ndk110shared_ptrINS_12InputContextEEEj
   285: 000000000015fa30   220 FUNC    GLOBAL DEFAULT   10 _ZN5shell7ImeData24PopUserSyllableFilterSeqEv
   288: 00000000004dfb6d    83 OBJECT  WEAK   DEFAULT   11 _ZTSNSt6__ndk120__shared_ptr_emplaceIN5shell18English26IdleStateENS_9allocatorIS2_EEEE
   289: 000000000013d190    32 FUNC    GLOBAL DEFAULT   10 _ZN5shell12ConvertUtils11CanPageDownEv
   291: 00000000006c7510    16 OBJECT  GLOBAL DEFAULT   18 _ZN5shell16WubiConvertState8key_map_E
   292: 0000000000165700    60 FUNC    WEAK   DEFAULT   10 _ZNSt6__ndk120__shared_ptr_emplaceIN5shell12InputContextENS_9allocatorIS2_EEED0Ev
   294: 0000000000139784   292 FUNC    GLOBAL DEFAULT   10 _ZN5shell12ConvertUtilsD1Ev
   295: 000000000017c838   196 FUNC    GLOBAL DEFAULT   10 _ZN5shell9ShellImpl36ModelSchemaGetInferenceSettingStreamEv
   296: 0000000000160014     8 FUNC    GLOBAL DEFAULT   10 _ZNK5shell7ImeData22GetUserSyllableLeftStrEv
   297: 00000000006c7588    24 OBJECT  GLOBAL DEFAULT   18 _ZTIN5shell16WubiConvertStateE
   298: 000000000015ca20    36 FUNC    WEAK   DEFAULT   10 _ZNSt6__ndk120__shared_ptr_emplaceIN5shell19Pinyin9ConvertStateENS_9allocatorIS2_EEED0Ev
   299: 00000000006de5f0     8 OBJECT  GLOBAL DEFAULT   21 _ZN5shell22kExportInfoCheatStringE
   302: 000000000017a4a8   308 FUNC    GLOBAL DEFAULT   10 _ZN5shell9ShellImpl36ParseWordAssociationPrefetchResponseERKNSt6__ndk112basic_stringIcNS1_11char_traitsIcEENS1_9allocatorIcEEEES9_Rb
   304: 000000000015f260   408 FUNC    GLOBAL DEFAULT   10 _ZN5shell7ImeData12MovePrevSyllEv
   305: 00000000004df8f2    77 OBJECT  WEAK   DEFAULT   11 _ZTSNSt6__ndk120__shared_ptr_emplaceIN5shell12Pinyin26ModeENS_9allocatorIS2_EEEE
   306: 0000000000171a20   104 FUNC    WEAK   DEFAULT   10 _ZN5shell11Pinyin9ModeD2Ev
   307: 000000000016a0f0    12 FUNC    GLOBAL DEFAULT   10 _ZNK5shell14KeyboardLayout8SpaceKeyEv
   309: 00000000006c6388    56 OBJECT  WEAK   DEFAULT   18 _ZTVNSt6__ndk120__shared_ptr_emplaceIN5shell17Pinyin26IdleStateENS_9allocatorIS2_EEEE
   310: 000000000017259c   280 FUNC    GLOBAL DEFAULT   10 _ZN5shell19Pinyin9ConvertState18HandleBubbleNumberENSt6__ndk110shared_ptrINS_12InputContextEEE
   311: 000000000016f958   124 FUNC    GLOBAL DEFAULT   10 _ZN5shell17Pinyin26IdleState14HandleEnSwitchENSt6__ndk110shared_ptrINS_12InputContextEEE
   312: 0000000000184168   520 FUNC    GLOBAL DEFAULT   10 _ZN5shell5track18PostInputEventDataEv
   313: 0000000000159518   120 FUNC    WEAK   DEFAULT   10 _ZNSt6__ndk16__treeINS_12__value_typeIN5shell14InputStateEnumENS_10shared_ptrINS2_10InputStateEEEEENS_19__map_value_compareIS3_S7_NS_4lessIS3_EELb1EEENS_9allocatorIS7_EEE7destroyEPNS_11__tree_nodeIS7_PvEE
   314: 000000000017bc7c   244 FUNC    GLOBAL DEFAULT   10 _ZN5shell9ShellImpl15FinishInputViewEv
   318: 000000000016f544    20 FUNC    GLOBAL DEFAULT   10 _ZN5shell20Pinyin26ConvertState15HandleInterceptENSt6__ndk110shared_ptrINS_12InputContextEEE
   319: 00000000004dfac8    81 OBJECT  WEAK   DEFAULT   11 _ZTSNSt6__ndk120__shared_ptr_emplaceIN5shell16Pinyin9IdleStateENS_9allocatorIS2_EEEE
   321: 000000000015cac0     4 FUNC    WEAK   DEFAULT   10 _ZNSt6__ndk120__shared_ptr_emplaceIN5shell21English26ConvertStateENS_9allocatorIS2_EEE21__on_zero_shared_weakEv
   322: 000000000016c4e8    84 FUNC    GLOBAL DEFAULT   10 _ZN5shell12Pinyin26Mode18UpdateGlobalStatusEv
   324: 000000000016a4c0   524 FUNC    GLOBAL DEFAULT   10 _ZN5shell15KeyboardManager14AsciiToKeycodeEh
   326: 0000000000176628    24 FUNC    GLOBAL DEFAULT   10 _ZN5shell9ShellImpl8PageDownEv
   327: 0000000000174b28  1712 FUNC    GLOBAL DEFAULT   10 _ZN5shell9ShellImpl6AttachENS_13InputModeEnumE
   329: 000000000015b7a4     4 FUNC    WEAK   DEFAULT   10 _ZN5shell21English26ConvertStateD0Ev
   330: 000000000016a208    12 FUNC    GLOBAL DEFAULT   10 _ZN5shell15KeyboardManager12SetShiftDownEb
   331: 00000000004e02f5    19 OBJECT  GLOBAL DEFAULT   11 _ZTSN5shell9InputModeE
   333: 000000000017a0f0    48 FUNC    GLOBAL DEFAULT   10 _ZN5shell9ShellImpl24ParseAssociationResponseERKNSt6__ndk112basic_stringIcNS1_11char_traitsIcEENS1_9allocatorIcEEEE
   335: 0000000000187170   844 FUNC    GLOBAL DEFAULT   10 _ZN5shell5track21PostHandwritingCommitEiiiN8keyboard12CommitSourceERKNSt6__ndk112basic_stringIcNS3_11char_traitsIcEENS3_9allocatorIcEEEE
   338: 000000000015c874    52 FUNC    WEAK   DEFAULT   10 _ZNSt6__ndk120__shared_ptr_emplaceIN5shell13English26ModeENS_9allocatorIS2_EEED2Ev
   339: 0000000000179754   312 FUNC    GLOBAL DEFAULT   10 _ZN5shell9ShellImpl18ParseCloudResponseERKNSt6__ndk112basic_stringIcNS1_11char_traitsIcEENS1_9allocatorIcEEEERii
   340: 00000000006c62d0    24 OBJECT  WEAK   DEFAULT   18 _ZTINSt6__ndk120__shared_ptr_emplaceIN5shell11Pinyin9ModeENS_9allocatorIS2_EEEE
   341: 0000000000164300    44 FUNC    GLOBAL DEFAULT   10 _ZN5shell9InputMode20GetCurrentInputStateEv
   343: 000000000015c6a0   148 FUNC    WEAK   DEFAULT   10 _ZNSt6__ndk120__shared_ptr_emplaceIN5shell12Pinyin26ModeENS_9allocatorIS2_EEED0Ev
   344: 000000000015b290   388 FUNC    WEAK   DEFAULT   10 _ZN5shell13AddCommitCntsENSt6__ndk110shared_ptrINS_12InputContextEEEj
   345: 000000000017a6b8   508 FUNC    GLOBAL DEFAULT   10 _ZN5shell9ShellImpl19TryAssociateConvertERKNSt6__ndk112basic_stringIcNS1_11char_traitsIcEENS1_9allocatorIcEEEE
   346: 000000000016451c   428 FUNC    GLOBAL DEFAULT   10 _ZN5shell9InputMode12ClearImeDataEv
   347: 000000000017036c   528 FUNC    GLOBAL DEFAULT   10 _ZN5shell17Pinyin26IdleState19HandleConvertAlphasENSt6__ndk110shared_ptrINS_12InputContextEEE
   350: 00000000004e0a08    28 OBJECT  GLOBAL DEFAULT   11 _ZTSN5shell17Pinyin26IdleStateE
   351: 00000000006e1768    48 OBJECT  GLOBAL DEFAULT   22 _ZN5shell10InputState16key_map_entries_E
   353: 0000000000139784   292 FUNC    GLOBAL DEFAULT   10 _ZN5shell12ConvertUtilsD2Ev
